target datalayout = "e-m:e-p270:32:32-p271:32:32-p272:64:64-i64:64-i128:128-f80:128-n8:16:32:64-S128"
target triple = "x86_64-pc-linux-gnu"

%"class.cv::(anonymous namespace)::GSafePtr" = type { ptr }

; Function Attrs: inlinehint mustprogress uwtable
define internal void @_ZN2cv12_GLOBAL__N_116GSafePtr_releaseI11_GstElementEEvPPT_(ptr noundef %0) #11 {
  %2 = alloca ptr, align 8
  store ptr %0, ptr %2, align 8, !tbaa !586
  %3 = load ptr, ptr %2, align 8, !tbaa !586
  %4 = icmp ne ptr %3, null
  br i1 %4, label %5, label %10

5:                                                ; preds = %1
  %6 = load ptr, ptr %2, align 8, !tbaa !586
  %7 = load ptr, ptr %6, align 8, !tbaa !252
  %8 = call ptr @g_type_check_instance_cast(ptr noundef %7, i64 noundef 80)
  call void @gst_object_unref(ptr noundef %8)
  %9 = load ptr, ptr %2, align 8, !tbaa !586
  store ptr null, ptr %9, align 8, !tbaa !252
  br label %10

10:                                               ; preds = %5, %1
  ret void
}

; Function Attrs: inlinehint mustprogress nounwind uwtable
define internal void @_ZN2cv12_GLOBAL__N_18GSafePtrI11_GstElementE7releaseEv(ptr noundef nonnull align 8 dereferenceable(8) %0) #5 align 2 personality ptr @__gxx_personality_v0 {
  %2 = alloca ptr, align 8
  store ptr %0, ptr %2, align 8, !tbaa !78
  %3 = load ptr, ptr %2, align 8
  %4 = getelementptr inbounds nuw %"class.cv::(anonymous namespace)::GSafePtr", ptr %3, i32 0, i32 0
  %5 = load ptr, ptr %4, align 8, !tbaa !80
  %6 = icmp ne ptr %5, null
  br i1 %6, label %7, label %10

7:                                                ; preds = %1
  %8 = getelementptr inbounds nuw %"class.cv::(anonymous namespace)::GSafePtr", ptr %3, i32 0, i32 0
  invoke void @_ZN2cv12_GLOBAL__N_116GSafePtr_releaseI11_GstElementEEvPPT_(ptr noundef %8)
          to label %9 unwind label %11

9:                                                ; preds = %7
  br label %10

10:                                               ; preds = %9, %1
  ret void

11:                                               ; preds = %7
  %12 = landingpad { ptr, i32 }
          catch ptr null
  %13 = extractvalue { ptr, i32 } %12, 0
  call void @__clang_call_terminate(ptr %13) #27
  unreachable
}

; Function Attrs: inlinehint mustprogress nounwind uwtable
define internal noundef nonnull align 8 dereferenceable(8) ptr @_ZN2cv12_GLOBAL__N_18GSafePtrI11_GstElementE6attachEPS2_(ptr noundef nonnull align 8 dereferenceable(8) %0, ptr noundef %1) #5 align 2 {
  %3 = alloca ptr, align 8
  %4 = alloca ptr, align 8
  store ptr %0, ptr %3, align 8, !tbaa !78
  store ptr %1, ptr %4, align 8, !tbaa !252
  %5 = load ptr, ptr %3, align 8
  call void @_ZN2cv12_GLOBAL__N_18GSafePtrI11_GstElementE7releaseEv(ptr noundef nonnull align 8 dereferenceable(8) %5) #3
  %6 = load ptr, ptr %4, align 8, !tbaa !252
  %7 = getelementptr inbounds nuw %"class.cv::(anonymous namespace)::GSafePtr", ptr %5, i32 0, i32 0
  store ptr %6, ptr %7, align 8, !tbaa !80
  ret ptr %5
}